; Function Attrs: mustprogress uwtable
define void @_ZN3nix42ServeProtoTest_build_options_2_2_read_Test8TestBodyEv(ptr noundef nonnull align 8 dereferenceable(68) %0) unnamed_addr #4 align 2 {
  %2 = alloca %"struct.nix::ServeProto::BuildOptions", align 8
  store i64 5, ptr %2, align 8
  %3 = getelementptr inbounds i8, ptr %2, i64 8
  store i64 6, ptr %3, align 8
  %4 = getelementptr inbounds i8, ptr %2, i64 16
  store i64 7, ptr %4, align 8
  %5 = getelementptr inbounds i8, ptr %2, i64 24
  store i64 -1, ptr %5, align 8
  %6 = getelementptr inbounds i8, ptr %2, i64 32
  store i8 1, ptr %6, align 8
  %7 = getelementptr inbounds i8, ptr %2, i64 33
  store i8 1, ptr %7, align 1
  tail call fastcc void @_ZN3nix18VersionedProtoTestINS_10ServeProtoEXadsoKcL_ZNS_L13serveProtoDirEEEEE13readProtoTestINS1_12BuildOptionsEEEvSt17basic_string_viewIcSt11char_traitsIcEEjT_(ptr noundef nonnull align 8 dereferenceable(64) %0, i64 17, ptr nonnull @.str.86, i32 noundef 514, ptr noundef nonnull byval(%"struct.nix::ServeProto::BuildOptions") align 8 %2)
  ret void
}